; Function Attrs: null_pointer_is_valid sspstrong uwtable
define internal range(i32 0, 5) i32 @dissect_oap_dsp(ptr noundef %0, ptr readnone captures(none) %1, ptr noundef %2, ptr readnone captures(none) %3) #0 {
  %.not = icmp eq ptr %2, null
  br i1 %.not, label %8, label %5

5:                                                ; preds = %4
  %6 = load i32, ptr @hf_oap_1_dsp_option, align 4
  %7 = tail call ptr @proto_tree_add_item(ptr noundef nonnull %2, i32 noundef %6, ptr noundef %0, i32 noundef 0, i32 noundef -1, i32 noundef 0)
  br label %8

8:                                                ; preds = %4, %5
  %.0 = phi i32 [ 4, %5 ], [ 0, %4 ]
  ret i32 %.0
}